ccopy_reg
_reconstructor
p0
(cutil
Counter
p1
c__builtin__
dict
p2
(dp3
S'numInvaders'
p4
F-1000
sS'reverse'
p5
F-2
sS'successorScore'
p6
F1000
sS'onDefense'
p7
F100
sS'stop'
p8
F-100
sS'invaderDistance'
p9
F-10
stp10
Rp11
.